; Function Attrs: nounwind uwtable
define hidden noundef signext i8 @nfaExecGough16_reportCurrent(ptr noundef readonly captures(none) %0, ptr noundef readonly captures(none) %1) local_unnamed_addr #0 {
  %3 = getelementptr inbounds nuw i8, ptr %0, i64 64
  %4 = getelementptr inbounds nuw i8, ptr %1, i64 88
  %5 = load ptr, ptr %4, align 8
  %6 = getelementptr inbounds nuw i8, ptr %1, i64 96
  %7 = load ptr, ptr %6, align 8
  %8 = getelementptr inbounds nuw i8, ptr %1, i64 16
  %9 = load ptr, ptr %8, align 8
  %10 = load i16, ptr %9, align 2
  %11 = getelementptr inbounds nuw i8, ptr %0, i64 76
  %12 = load i32, ptr %11, align 4
  %13 = zext i32 %12 to i64
  %14 = getelementptr inbounds nuw i8, ptr %0, i64 %13
  %15 = zext i16 %10 to i64
  %16 = getelementptr inbounds nuw %struct.mstate_aux, ptr %14, i64 %15
  %17 = getelementptr inbounds nuw i8, ptr %1, i64 32
  %18 = load i64, ptr %17, align 8
  %19 = getelementptr inbounds nuw i8, ptr %1, i64 8
  %20 = load i32, ptr %19, align 8
  %21 = zext i32 %20 to i64
  %.idx.i = mul nuw nsw i64 %21, 24
  %22 = getelementptr i8, ptr %1, i64 112
  %23 = getelementptr i8, ptr %22, i64 %.idx.i
  %24 = load i64, ptr %23, align 8
  %25 = add i64 %24, %18
  %26 = getelementptr inbounds nuw i8, ptr %9, i64 16
  %27 = load i32, ptr %16, align 4
  %.not = icmp eq i32 %27, 0
  br i1 %.not, label %doReports.exit, label %28

28:                                               ; preds = %2
  %29 = icmp eq i16 %10, 0
  br i1 %29, label %30, label %33

30:                                               ; preds = %28
  %31 = load i64, ptr %26, align 8
  %32 = tail call i32 %5(i64 noundef %31, i64 noundef %25, i32 noundef 0, ptr noundef %7) #14
  br label %doReports.exit

33:                                               ; preds = %28
  %34 = zext i32 %27 to i64
  %35 = getelementptr inbounds nuw i8, ptr %3, i64 %34
  %36 = getelementptr inbounds i8, ptr %35, i64 -64
  %37 = load i32, ptr %36, align 4
  switch i32 %37, label %.lr.ph [
    i32 1, label %39
    i32 0, label %doReports.exit
  ]

.lr.ph:                                           ; preds = %33
  %38 = getelementptr inbounds i8, ptr %35, i64 -60
  %wide.trip.count = zext i32 %37 to i64
  br label %52

39:                                               ; preds = %33
  %40 = getelementptr inbounds i8, ptr %35, i64 -60
  %41 = load i32, ptr %40, align 4
  %42 = getelementptr inbounds i8, ptr %35, i64 -56
  %43 = load i32, ptr %42, align 4
  %44 = icmp eq i32 %43, -1
  br i1 %44, label %49, label %45

45:                                               ; preds = %39
  %46 = zext i32 %43 to i64
  %47 = getelementptr inbounds nuw [1 x i64], ptr %26, i64 0, i64 %46
  %48 = load i64, ptr %47, align 8
  br label %49

49:                                               ; preds = %45, %39
  %50 = phi i64 [ %48, %45 ], [ %25, %39 ]
  %51 = tail call i32 %5(i64 noundef %50, i64 noundef %25, i32 noundef %41, ptr noundef %7) #14
  br label %doReports.exit

52:                                               ; preds = %61, %.lr.ph
  %indvars.iv = phi i64 [ 0, %.lr.ph ], [ %indvars.iv.next, %61 ]
  %53 = getelementptr inbounds nuw [0 x %struct.gough_report], ptr %38, i64 0, i64 %indvars.iv
  %54 = getelementptr inbounds nuw i8, ptr %53, i64 4
  %55 = load i32, ptr %54, align 4
  %56 = icmp eq i32 %55, -1
  br i1 %56, label %61, label %57

57:                                               ; preds = %52
  %58 = zext i32 %55 to i64
  %59 = getelementptr inbounds nuw [1 x i64], ptr %26, i64 0, i64 %58
  %60 = load i64, ptr %59, align 8
  br label %61

61:                                               ; preds = %57, %52
  %62 = phi i64 [ %60, %57 ], [ %25, %52 ]
  %63 = load i32, ptr %53, align 4
  %64 = tail call i32 %5(i64 noundef %62, i64 noundef %25, i32 noundef %63, ptr noundef %7) #14
  %.not63.i = icmp eq i32 %64, 0
  %indvars.iv.next = add nuw nsw i64 %indvars.iv, 1
  %exitcond.not = icmp eq i64 %indvars.iv.next, %wide.trip.count
  %or.cond = select i1 %.not63.i, i1 true, i1 %exitcond.not
  br i1 %or.cond, label %doReports.exit, label %52

doReports.exit:                                   ; preds = %61, %33, %49, %30, %2
  ret i8 0
}